target datalayout = "e-m:e-p270:32:32-p271:32:32-p272:64:64-i64:64-i128:128-f80:128-n8:16:32:64-S128"
target triple = "x86_64-pc-linux-gnu"

@websocket_handle = internal global ptr null, align 8

; Function Attrs: null_pointer_is_valid sspstrong uwtable
define internal zeroext i1 @test_websocket(ptr noundef %0, ptr noundef %1, i32 noundef %2, ptr noundef %3) #0 {
  %5 = alloca i1, align 1
  %6 = alloca ptr, align 8
  %7 = alloca ptr, align 8
  %8 = alloca i32, align 4
  %9 = alloca ptr, align 8
  %10 = alloca i32, align 4
  %11 = alloca i32, align 4
  %12 = alloca i8, align 1
  %13 = alloca i8, align 1
  %14 = alloca i8, align 1
  store ptr %0, ptr %6, align 8
  store ptr %1, ptr %7, align 8
  store i32 %2, ptr %8, align 4
  store ptr %3, ptr %9, align 8
  call void @llvm.lifetime.start.p0(i64 4, ptr %10) #10
  %15 = load ptr, ptr %7, align 8
  %16 = call i32 @tvb_captured_length(ptr noundef %15)
  store i32 %16, ptr %10, align 4
  %17 = load i32, ptr %10, align 4
  %18 = icmp ult i32 %17, 2
  br i1 %18, label %19, label %20

19:                                               ; preds = %4
  store i1 false, ptr %5, align 1
  store i32 1, ptr %11, align 4
  br label %95

20:                                               ; preds = %4
  call void @llvm.lifetime.start.p0(i64 1, ptr %12) #10
  %21 = load ptr, ptr %7, align 8
  %22 = call zeroext i8 @tvb_get_uint8(ptr noundef %21, i32 noundef 0)
  store i8 %22, ptr %12, align 1
  call void @llvm.lifetime.start.p0(i64 1, ptr %13) #10
  %23 = load ptr, ptr %7, align 8
  %24 = call zeroext i8 @tvb_get_uint8(ptr noundef %23, i32 noundef 1)
  store i8 %24, ptr %13, align 1
  %25 = load i8, ptr %12, align 1
  %26 = zext i8 %25 to i32
  %27 = and i32 %26, 112
  %28 = icmp sgt i32 %27, 0
  br i1 %28, label %29, label %30

29:                                               ; preds = %20
  store i1 false, ptr %5, align 1
  store i32 1, ptr %11, align 4
  br label %94

30:                                               ; preds = %20
  call void @llvm.lifetime.start.p0(i64 1, ptr %14) #10
  %31 = load i8, ptr %12, align 1
  %32 = zext i8 %31 to i32
  %33 = and i32 %32, 15
  %34 = trunc i32 %33 to i8
  store i8 %34, ptr %14, align 1
  %35 = load i8, ptr %14, align 1
  %36 = zext i8 %35 to i32
  %37 = icmp eq i32 %36, 0
  br i1 %37, label %59, label %38

38:                                               ; preds = %30
  %39 = load i8, ptr %14, align 1
  %40 = zext i8 %39 to i32
  %41 = icmp eq i32 %40, 1
  br i1 %41, label %59, label %42

42:                                               ; preds = %38
  %43 = load i8, ptr %14, align 1
  %44 = zext i8 %43 to i32
  %45 = icmp eq i32 %44, 2
  br i1 %45, label %59, label %46

46:                                               ; preds = %42
  %47 = load i8, ptr %14, align 1
  %48 = zext i8 %47 to i32
  %49 = icmp eq i32 %48, 8
  br i1 %49, label %59, label %50

50:                                               ; preds = %46
  %51 = load i8, ptr %14, align 1
  %52 = zext i8 %51 to i32
  %53 = icmp eq i32 %52, 9
  br i1 %53, label %59, label %54

54:                                               ; preds = %50
  %55 = load i8, ptr %14, align 1
  %56 = zext i8 %55 to i32
  %57 = icmp eq i32 %56, 10
  br i1 %57, label %59, label %58

58:                                               ; preds = %54
  store i1 false, ptr %5, align 1
  store i32 1, ptr %11, align 4
  br label %93

59:                                               ; preds = %54, %50, %46, %42, %38, %30
  %60 = load i8, ptr %12, align 1
  %61 = zext i8 %60 to i32
  %62 = icmp sge i32 %61, 97
  br i1 %62, label %63, label %67

63:                                               ; preds = %59
  %64 = load i8, ptr %12, align 1
  %65 = zext i8 %64 to i32
  %66 = icmp sle i32 %65, 122
  br i1 %66, label %75, label %67

67:                                               ; preds = %63, %59
  %68 = load i8, ptr %12, align 1
  %69 = zext i8 %68 to i32
  %70 = icmp sge i32 %69, 65
  br i1 %70, label %71, label %92

71:                                               ; preds = %67
  %72 = load i8, ptr %12, align 1
  %73 = zext i8 %72 to i32
  %74 = icmp sle i32 %73, 90
  br i1 %74, label %75, label %92

75:                                               ; preds = %71, %63
  %76 = load i8, ptr %13, align 1
  %77 = zext i8 %76 to i32
  %78 = icmp sge i32 %77, 97
  br i1 %78, label %79, label %83

79:                                               ; preds = %75
  %80 = load i8, ptr %13, align 1
  %81 = zext i8 %80 to i32
  %82 = icmp sle i32 %81, 122
  br i1 %82, label %91, label %83

83:                                               ; preds = %79, %75
  %84 = load i8, ptr %13, align 1
  %85 = zext i8 %84 to i32
  %86 = icmp sge i32 %85, 65
  br i1 %86, label %87, label %92

87:                                               ; preds = %83
  %88 = load i8, ptr %13, align 1
  %89 = zext i8 %88 to i32
  %90 = icmp sle i32 %89, 90
  br i1 %90, label %91, label %92

91:                                               ; preds = %87, %79
  store i1 false, ptr %5, align 1
  store i32 1, ptr %11, align 4
  br label %93

92:                                               ; preds = %87, %83, %71, %67
  store i1 true, ptr %5, align 1
  store i32 1, ptr %11, align 4
  br label %93

93:                                               ; preds = %92, %91, %58
  call void @llvm.lifetime.end.p0(i64 1, ptr %14) #10
  br label %94

94:                                               ; preds = %93, %29
  call void @llvm.lifetime.end.p0(i64 1, ptr %13) #10
  call void @llvm.lifetime.end.p0(i64 1, ptr %12) #10
  br label %95

95:                                               ; preds = %94, %19
  call void @llvm.lifetime.end.p0(i64 4, ptr %10) #10
  %96 = load i1, ptr %5, align 1
  ret i1 %96
}

; Function Attrs: null_pointer_is_valid sspstrong uwtable
define internal zeroext i1 @dissect_websocket_heur_tcp(ptr noundef %0, ptr noundef %1, ptr noundef %2, ptr noundef %3) #0 {
  %5 = alloca i1, align 1
  %6 = alloca ptr, align 8
  %7 = alloca ptr, align 8
  %8 = alloca ptr, align 8
  %9 = alloca ptr, align 8
  %10 = alloca ptr, align 8
  store ptr %0, ptr %6, align 8
  store ptr %1, ptr %7, align 8
  store ptr %2, ptr %8, align 8
  store ptr %3, ptr %9, align 8
  %11 = load ptr, ptr %7, align 8
  %12 = load ptr, ptr %6, align 8
  %13 = load ptr, ptr %9, align 8
  %14 = call zeroext i1 @test_websocket(ptr noundef %11, ptr noundef %12, i32 noundef 0, ptr noundef %13)
  br i1 %14, label %16, label %15

15:                                               ; preds = %4
  store i1 false, ptr %5, align 1
  br label %25

16:                                               ; preds = %4
  call void @llvm.lifetime.start.p0(i64 8, ptr %10) #10
  %17 = load ptr, ptr %7, align 8
  %18 = call ptr @find_or_create_conversation(ptr noundef %17)
  store ptr %18, ptr %10, align 8
  %19 = load ptr, ptr %10, align 8
  %20 = load ptr, ptr @websocket_handle, align 8
  call void @conversation_set_dissector(ptr noundef %19, ptr noundef %20)
  %21 = load ptr, ptr %6, align 8
  %22 = load ptr, ptr %7, align 8
  %23 = load ptr, ptr %8, align 8
  %24 = load ptr, ptr %9, align 8
  call void @tcp_dissect_pdus(ptr noundef %21, ptr noundef %22, ptr noundef %23, i1 noundef zeroext true, i32 noundef 2, ptr noundef @get_websocket_frame_length, ptr noundef @dissect_websocket_frame, ptr noundef %24)
  store i1 true, ptr %5, align 1
  call void @llvm.lifetime.end.p0(i64 8, ptr %10) #10
  br label %25

25:                                               ; preds = %16, %15
  %26 = load i1, ptr %5, align 1
  ret i1 %26
}