; Function Attrs: null_pointer_is_valid sspstrong uwtable
define internal noundef zeroext i1 @dissect_websocket_heur_tcp(ptr noundef %0, ptr noundef %1, ptr noundef %2, ptr noundef %3) #0 {
  %5 = tail call i32 @tvb_captured_length(ptr noundef %0)
  %6 = icmp ult i32 %5, 2
  br i1 %6, label %test_websocket.exit.thread, label %7

7:                                                ; preds = %4
  %8 = tail call zeroext i8 @tvb_get_uint8(ptr noundef %0, i32 noundef 0)
  %.fr1.i = freeze i8 %8
  %9 = tail call zeroext i8 @tvb_get_uint8(ptr noundef %0, i32 noundef 1)
  %10 = and i8 %.fr1.i, 112
  %.not.i = icmp eq i8 %10, 0
  br i1 %.not.i, label %11, label %test_websocket.exit.thread

11:                                               ; preds = %7
  %12 = and i8 %.fr1.i, 14
  %13 = icmp eq i8 %12, 8
  br i1 %13, label %15, label %switch.early.test.i

switch.early.test.i:                              ; preds = %11
  %14 = and i8 %.fr1.i, 15
  switch i8 %14, label %test_websocket.exit.thread [
    i8 10, label %15
    i8 2, label %15
    i8 1, label %15
    i8 0, label %15
  ]

15:                                               ; preds = %switch.early.test.i, %switch.early.test.i, %switch.early.test.i, %switch.early.test.i, %11
  %16 = add i8 %.fr1.i, -65
  %or.cond.i = icmp ult i8 %16, 26
  br i1 %or.cond.i, label %17, label %test_websocket.exit

17:                                               ; preds = %15
  %18 = and i8 %9, -33
  %19 = add i8 %18, -65
  %or.cond46.i = icmp ult i8 %19, 26
  br i1 %or.cond46.i, label %test_websocket.exit.thread, label %test_websocket.exit

test_websocket.exit:                              ; preds = %17, %15
  %20 = tail call ptr @find_or_create_conversation(ptr noundef %1)
  %21 = load ptr, ptr @websocket_handle, align 8
  tail call void @conversation_set_dissector(ptr noundef %20, ptr noundef %21)
  tail call void @tcp_dissect_pdus(ptr noundef %0, ptr noundef %1, ptr noundef %2, i1 noundef zeroext true, i32 noundef 2, ptr noundef nonnull @get_websocket_frame_length, ptr noundef nonnull @dissect_websocket_frame, ptr noundef %3)
  br label %test_websocket.exit.thread

test_websocket.exit.thread:                       ; preds = %17, %switch.early.test.i, %7, %4, %test_websocket.exit
  %.0.i11 = phi i1 [ true, %test_websocket.exit ], [ false, %4 ], [ false, %7 ], [ false, %switch.early.test.i ], [ false, %17 ]
  ret i1 %.0.i11
}